Certificate:
    Data:
        Version: 3 (0x2)
        Serial Number: 1 (0x1)
    Signature Algorithm: sha1WithRSAEncryption
        Issuer: C=US, ST=NY, L=Buffalo, O=Division By Zero, OU=Production, CN=MTX-ROUTER-1/name=Wayne E. Seguin/emailAddress=mail@host.domain
        Validity
            Not Before: Jan 29 17:43:33 2014 GMT
            Not After : Jan 27 17:43:33 2024 GMT
        Subject: C=US, ST=NY, L=Buffalo, O=Division By Zero, OU=Production, CN=MTX-ROUTER-1/name=Wayne E. Seguin/emailAddress=mail@host.domain
        Subject Public Key Info:
            Public Key Algorithm: rsaEncryption
                Public-Key: (1024 bit)
                Modulus:
                    00:f3:5f:55:0e:c1:a8:f3:a5:45:79:30:b8:99:a8:
                    8a:9a:7e:6e:53:46:db:75:3c:f6:3e:6d:65:37:8d:
                    e8:1b:0e:4d:1a:09:c7:80:90:ba:2e:98:88:54:d2:
                    26:92:92:32:1e:e7:83:4b:ea:6b:bc:2c:66:86:38:
                    fb:4f:7b:8d:68:10:cd:94:b8:b7:cd:bb:44:4f:9c:
                    2b:d0:0f:bb:ef:96:3c:67:5a:03:25:1b:a3:99:54:
                    14:7f:f1:dc:cc:95:08:6c:50:1b:a4:ae:3c:0a:87:
                    18:7d:b2:c5:3b:0b:26:9e:39:12:ff:94:87:d8:c0:
                    e4:eb:3a:76:de:a0:b5:5e:41
                Exponent: 65537 (0x10001)
        X509v3 extensions:
            X509v3 Basic Constraints: 
                CA:FALSE
            Netscape Cert Type: 
                SSL Server
            Netscape Comment: 
                Easy-RSA Generated Server Certificate
            X509v3 Subject Key Identifier: 
                CF:5B:29:EA:28:CC:BD:A9:5F:2D:6A:E3:51:AA:D1:05:29:B5:AA:3E
            X509v3 Authority Key Identifier: 
                keyid:EA:71:2C:74:7E:4F:91:A1:2C:96:EC:51:6F:BE:3D:F3:6F:B5:81:7C
                DirName:/C=US/ST=NY/L=Buffalo/O=Division By Zero/OU=Production/CN=MTX-ROUTER-1/name=Wayne E. Seguin/emailAddress=mail@host.domain
                serial:E4:69:08:58:0B:79:34:36

            X509v3 Extended Key Usage: 
                TLS Web Server Authentication
            X509v3 Key Usage: 
                Digital Signature, Key Encipherment
    Signature Algorithm: sha1WithRSAEncryption
         af:ed:1c:06:07:2a:1c:63:37:9d:1b:d9:66:95:93:4d:e4:ec:
         44:24:0c:af:68:02:22:2b:39:94:c8:c7:6b:a5:29:a8:8c:bb:
         df:b1:97:15:8b:a5:df:c0:d1:ff:2c:44:7a:e4:e6:23:e7:b0:
         41:c4:8c:49:91:6e:ff:0e:c8:e6:39:70:df:1b:7e:cd:4f:59:
         1c:9b:e2:c6:a2:56:f0:47:2b:e3:3f:d8:cb:57:10:c0:6a:3d:
         1d:60:39:18:23:48:08:e3:60:a3:d6:58:90:f0:61:bc:ad:5c:
         69:45:59:4f:0e:03:42:d8:00:07:d0:01:55:09:21:9d:a6:3d:
         ee:ca
-----BEGIN CERTIFICATE-----
MIIEVTCCA76gAwIBAgIBATANBgkqhkiG9w0BAQUFADCBrjELMAkGA1UEBhMCVVMx
CzAJBgNVBAgTAk5ZMRAwDgYDVQQHEwdCdWZmYWxvMRkwFwYDVQQKExBEaXZpc2lv
biBCeSBaZXJvMRMwEQYDVQQLEwpQcm9kdWN0aW9uMRUwEwYDVQQDEwxNVFgtUk9V
VEVSLTExGDAWBgNVBCkTD1dheW5lIEUuIFNlZ3VpbjEfMB0GCSqGSIb3DQEJARYQ
bWFpbEBob3N0LmRvbWFpbjAeFw0xNDAxMjkxNzQzMzNaFw0yNDAxMjcxNzQzMzNa
MIGuMQswCQYDVQQGEwJVUzELMAkGA1UECBMCTlkxEDAOBgNVBAcTB0J1ZmZhbG8x
GTAXBgNVBAoTEERpdmlzaW9uIEJ5IFplcm8xEzARBgNVBAsTClByb2R1Y3Rpb24x
FTATBgNVBAMTDE1UWC1ST1VURVItMTEYMBYGA1UEKRMPV2F5bmUgRS4gU2VndWlu
MR8wHQYJKoZIhvcNAQkBFhBtYWlsQGhvc3QuZG9tYWluMIGfMA0GCSqGSIb3DQEB
AQUAA4GNADCBiQKBgQDzX1UOwajzpUV5MLiZqIqafm5TRtt1PPY+bWU3jegbDk0a
CceAkLoumIhU0iaSkjIe54NL6mu8LGaGOPtPe41oEM2UuLfNu0RPnCvQD7vvljxn
WgMlG6OZVBR/8dzMlQhsUBukrjwKhxh9ssU7CyaeORL/lIfYwOTrOnbeoLVeQQID
AQABo4IBfzCCAXswCQYDVR0TBAIwADARBglghkgBhvhCAQEEBAMCBkAwNAYJYIZI
AYb4QgENBCcWJUVhc3ktUlNBIEdlbmVyYXRlZCBTZXJ2ZXIgQ2VydGlmaWNhdGUw
HQYDVR0OBBYEFM9bKeoozL2pXy1q41Gq0QUptao+MIHjBgNVHSMEgdswgdiAFOpx
LHR+T5GhLJbsUW++PfNvtYF8oYG0pIGxMIGuMQswCQYDVQQGEwJVUzELMAkGA1UE
CBMCTlkxEDAOBgNVBAcTB0J1ZmZhbG8xGTAXBgNVBAoTEERpdmlzaW9uIEJ5IFpl
cm8xEzARBgNVBAsTClByb2R1Y3Rpb24xFTATBgNVBAMTDE1UWC1ST1VURVItMTEY
MBYGA1UEKRMPV2F5bmUgRS4gU2VndWluMR8wHQYJKoZIhvcNAQkBFhBtYWlsQGhv
c3QuZG9tYWluggkA5GkIWAt5NDYwEwYDVR0lBAwwCgYIKwYBBQUHAwEwCwYDVR0P
BAQDAgWgMA0GCSqGSIb3DQEBBQUAA4GBAK/tHAYHKhxjN50b2WaVk03k7EQkDK9o
AiIrOZTIx2ulKaiMu9+xlxWLpd/A0f8sRHrk5iPnsEHEjEmRbv8OyOY5cN8bfs1P
WRyb4saiVvBHK+M/2MtXEMBqPR1gORgjSAjjYKPWWJDwYbytXGlFWU8OA0LYAAfQ
AVUJIZ2mPe7K
-----END CERTIFICATE-----
