Certificate:
    Data:
        Version: 3 (0x2)
        Serial Number: 2 (0x2)
    Signature Algorithm: sha1WithRSAEncryption
        Issuer: C=US, ST=NY, L=Buffalo, O=Division By Zero, OU=Production, CN=MTX-ROUTER-1/name=Wayne E. Seguin/emailAddress=mail@host.domain
        Validity
            Not Before: Jan 29 17:46:21 2014 GMT
            Not After : Jan 27 17:46:21 2024 GMT
        Subject: C=US, ST=NY, L=Buffalo, O=Division By Zero, OU=Production, CN=MTX-ROUTER-1/name=Jeremy R. Budnack/emailAddress=jrbudnack@gmail.com
        Subject Public Key Info:
            Public Key Algorithm: rsaEncryption
                Public-Key: (1024 bit)
                Modulus:
                    00:ba:3e:dc:61:4f:1f:8f:9e:3b:2e:89:01:5d:e4:
                    36:ed:e5:6b:8d:d1:e7:28:3e:e5:33:d3:91:97:cd:
                    49:a8:8c:02:45:2c:7c:1c:e8:11:7b:6f:18:cd:52:
                    7f:61:34:34:46:ad:de:2e:fe:cb:57:41:21:33:ba:
                    ec:66:90:44:e1:02:d6:33:e2:bf:38:22:05:73:7e:
                    04:05:d0:b9:82:b1:28:d4:52:ff:8f:d6:71:9e:1d:
                    4d:b5:c7:70:43:9c:3f:80:70:72:42:5e:16:e9:38:
                    c0:5a:ba:cf:94:a4:99:4a:a3:a2:e4:65:69:77:d5:
                    3d:c3:36:10:1a:d0:cb:90:4d
                Exponent: 65537 (0x10001)
        X509v3 extensions:
            X509v3 Basic Constraints: 
                CA:FALSE
            Netscape Comment: 
                Easy-RSA Generated Certificate
            X509v3 Subject Key Identifier: 
                95:4E:38:76:27:D6:B0:76:FA:57:78:27:2F:90:8E:55:56:73:2D:5B
            X509v3 Authority Key Identifier: 
                keyid:EA:71:2C:74:7E:4F:91:A1:2C:96:EC:51:6F:BE:3D:F3:6F:B5:81:7C
                DirName:/C=US/ST=NY/L=Buffalo/O=Division By Zero/OU=Production/CN=MTX-ROUTER-1/name=Wayne E. Seguin/emailAddress=mail@host.domain
                serial:E4:69:08:58:0B:79:34:36

            X509v3 Extended Key Usage: 
                TLS Web Client Authentication
            X509v3 Key Usage: 
                Digital Signature
    Signature Algorithm: sha1WithRSAEncryption
         27:ff:e0:83:a9:24:b6:a0:c6:50:33:bd:47:e1:98:7f:cd:1d:
         86:87:5a:6e:ae:a7:02:4c:b2:5e:94:00:27:0e:9c:c4:9f:2b:
         69:54:4b:b3:95:7d:d0:7a:c2:0c:a0:57:41:98:ce:39:e2:0b:
         f8:59:ca:2f:bd:c1:97:88:a1:2f:ce:3d:76:55:f4:73:fb:25:
         b2:7c:99:d7:47:30:09:ca:51:3f:83:71:6a:ef:49:33:32:d6:
         71:2c:b0:47:7b:b6:45:db:50:25:8a:4e:2d:96:6e:ce:df:c0:
         bf:76:2a:df:88:2c:74:8d:f9:ea:f2:d7:75:10:33:23:ad:65:
         c7:e4
-----BEGIN CERTIFICATE-----
MIIEQDCCA6mgAwIBAgIBAjANBgkqhkiG9w0BAQUFADCBrjELMAkGA1UEBhMCVVMx
CzAJBgNVBAgTAk5ZMRAwDgYDVQQHEwdCdWZmYWxvMRkwFwYDVQQKExBEaXZpc2lv
biBCeSBaZXJvMRMwEQYDVQQLEwpQcm9kdWN0aW9uMRUwEwYDVQQDEwxNVFgtUk9V
VEVSLTExGDAWBgNVBCkTD1dheW5lIEUuIFNlZ3VpbjEfMB0GCSqGSIb3DQEJARYQ
bWFpbEBob3N0LmRvbWFpbjAeFw0xNDAxMjkxNzQ2MjFaFw0yNDAxMjcxNzQ2MjFa
MIGzMQswCQYDVQQGEwJVUzELMAkGA1UECBMCTlkxEDAOBgNVBAcTB0J1ZmZhbG8x
GTAXBgNVBAoTEERpdmlzaW9uIEJ5IFplcm8xEzARBgNVBAsTClByb2R1Y3Rpb24x
FTATBgNVBAMTDE1UWC1ST1VURVItMTEaMBgGA1UEKRMRSmVyZW15IFIuIEJ1ZG5h
Y2sxIjAgBgkqhkiG9w0BCQEWE2pyYnVkbmFja0BnbWFpbC5jb20wgZ8wDQYJKoZI
hvcNAQEBBQADgY0AMIGJAoGBALo+3GFPH4+eOy6JAV3kNu3la43R5yg+5TPTkZfN
SaiMAkUsfBzoEXtvGM1Sf2E0NEat3i7+y1dBITO67GaQROEC1jPivzgiBXN+BAXQ
uYKxKNRS/4/WcZ4dTbXHcEOcP4BwckJeFuk4wFq6z5SkmUqjouRlaXfVPcM2EBrQ
y5BNAgMBAAGjggFlMIIBYTAJBgNVHRMEAjAAMC0GCWCGSAGG+EIBDQQgFh5FYXN5
LVJTQSBHZW5lcmF0ZWQgQ2VydGlmaWNhdGUwHQYDVR0OBBYEFJVOOHYn1rB2+ld4
Jy+QjlVWcy1bMIHjBgNVHSMEgdswgdiAFOpxLHR+T5GhLJbsUW++PfNvtYF8oYG0
pIGxMIGuMQswCQYDVQQGEwJVUzELMAkGA1UECBMCTlkxEDAOBgNVBAcTB0J1ZmZh
bG8xGTAXBgNVBAoTEERpdmlzaW9uIEJ5IFplcm8xEzARBgNVBAsTClByb2R1Y3Rp
b24xFTATBgNVBAMTDE1UWC1ST1VURVItMTEYMBYGA1UEKRMPV2F5bmUgRS4gU2Vn
dWluMR8wHQYJKoZIhvcNAQkBFhBtYWlsQGhvc3QuZG9tYWluggkA5GkIWAt5NDYw
EwYDVR0lBAwwCgYIKwYBBQUHAwIwCwYDVR0PBAQDAgeAMA0GCSqGSIb3DQEBBQUA
A4GBACf/4IOpJLagxlAzvUfhmH/NHYaHWm6upwJMsl6UACcOnMSfK2lUS7OVfdB6
wgygV0GYzjniC/hZyi+9wZeIoS/OPXZV9HP7JbJ8mddHMAnKUT+DcWrvSTMy1nEs
sEd7tkXbUCWKTi2Wbs7fwL92Kt+ILHSN+ery13UQMyOtZcfk
-----END CERTIFICATE-----
