Certificate:
    Data:
        Version: 3 (0x2)
        Serial Number: 3 (0x3)
    Signature Algorithm: sha1WithRSAEncryption
        Issuer: C=US, ST=NY, L=Buffalo, O=Division By Zero, OU=Production, CN=MTX-ROUTER-1/name=Wayne E. Seguin/emailAddress=mail@host.domain
        Validity
            Not Before: Jan 29 17:47:29 2014 GMT
            Not After : Jan 27 17:47:29 2024 GMT
        Subject: C=US, ST=NY, L=Buffalo, O=Division By Zero, OU=Production, CN=MTX-ROUTER-1/name=Christopher F. Weibel/emailAddress=christopher.weibel@gmail.com
        Subject Public Key Info:
            Public Key Algorithm: rsaEncryption
                Public-Key: (1024 bit)
                Modulus:
                    00:a6:a2:e8:d6:b1:94:9b:4c:4f:b1:b1:0d:b0:04:
                    21:e0:ef:6c:91:04:9d:41:20:39:01:84:ab:08:a4:
                    fd:5e:eb:55:f1:bf:59:95:7c:87:46:dd:37:aa:8b:
                    d7:0e:99:0e:95:6e:61:ff:11:8d:c9:40:0d:ee:11:
                    5f:5a:a8:ec:b5:04:81:6a:e6:a2:22:92:43:78:0b:
                    57:1b:45:7e:2c:51:50:8b:cf:1c:0f:e3:60:09:a6:
                    e4:f4:65:f8:9e:09:6c:27:7d:f9:e4:b5:54:2e:45:
                    59:e0:f9:52:83:3d:86:af:01:36:c6:c0:32:d0:1a:
                    02:e1:fb:72:76:f2:14:a0:27
                Exponent: 65537 (0x10001)
        X509v3 extensions:
            X509v3 Basic Constraints: 
                CA:FALSE
            Netscape Comment: 
                Easy-RSA Generated Certificate
            X509v3 Subject Key Identifier: 
                9D:F5:A5:F3:15:6A:6B:41:57:FE:11:71:C7:79:FF:57:D1:51:DF:B1
            X509v3 Authority Key Identifier: 
                keyid:EA:71:2C:74:7E:4F:91:A1:2C:96:EC:51:6F:BE:3D:F3:6F:B5:81:7C
                DirName:/C=US/ST=NY/L=Buffalo/O=Division By Zero/OU=Production/CN=MTX-ROUTER-1/name=Wayne E. Seguin/emailAddress=mail@host.domain
                serial:E4:69:08:58:0B:79:34:36

            X509v3 Extended Key Usage: 
                TLS Web Client Authentication
            X509v3 Key Usage: 
                Digital Signature
    Signature Algorithm: sha1WithRSAEncryption
         82:9e:8e:98:75:e8:66:5b:90:eb:97:64:6b:c3:1f:9d:af:2b:
         40:a6:5a:69:4b:20:13:52:70:eb:2c:24:4e:c7:74:c8:01:4a:
         d3:b3:7e:3e:4e:c4:a8:02:d9:41:37:06:9a:30:53:d9:16:11:
         7e:ca:41:c2:44:53:69:e8:06:9b:44:9d:ae:31:9c:59:66:b3:
         03:bd:44:bf:38:27:2b:5a:32:7d:a6:2f:cd:ed:4b:77:5a:e7:
         18:ff:dc:8f:91:54:79:72:d5:39:16:b3:71:71:c5:96:f5:54:
         f5:3b:2e:29:f5:eb:22:92:b8:51:16:68:7a:01:30:28:bc:b6:
         9a:f7
-----BEGIN CERTIFICATE-----
MIIETTCCA7agAwIBAgIBAzANBgkqhkiG9w0BAQUFADCBrjELMAkGA1UEBhMCVVMx
CzAJBgNVBAgTAk5ZMRAwDgYDVQQHEwdCdWZmYWxvMRkwFwYDVQQKExBEaXZpc2lv
biBCeSBaZXJvMRMwEQYDVQQLEwpQcm9kdWN0aW9uMRUwEwYDVQQDEwxNVFgtUk9V
VEVSLTExGDAWBgNVBCkTD1dheW5lIEUuIFNlZ3VpbjEfMB0GCSqGSIb3DQEJARYQ
bWFpbEBob3N0LmRvbWFpbjAeFw0xNDAxMjkxNzQ3MjlaFw0yNDAxMjcxNzQ3Mjla
MIHAMQswCQYDVQQGEwJVUzELMAkGA1UECBMCTlkxEDAOBgNVBAcTB0J1ZmZhbG8x
GTAXBgNVBAoTEERpdmlzaW9uIEJ5IFplcm8xEzARBgNVBAsTClByb2R1Y3Rpb24x
FTATBgNVBAMTDE1UWC1ST1VURVItMTEeMBwGA1UEKRMVQ2hyaXN0b3BoZXIgRi4g
V2VpYmVsMSswKQYJKoZIhvcNAQkBFhxjaHJpc3RvcGhlci53ZWliZWxAZ21haWwu
Y29tMIGfMA0GCSqGSIb3DQEBAQUAA4GNADCBiQKBgQCmoujWsZSbTE+xsQ2wBCHg
72yRBJ1BIDkBhKsIpP1e61Xxv1mVfIdG3Teqi9cOmQ6VbmH/EY3JQA3uEV9aqOy1
BIFq5qIikkN4C1cbRX4sUVCLzxwP42AJpuT0ZfieCWwnffnktVQuRVng+VKDPYav
ATbGwDLQGgLh+3J28hSgJwIDAQABo4IBZTCCAWEwCQYDVR0TBAIwADAtBglghkgB
hvhCAQ0EIBYeRWFzeS1SU0EgR2VuZXJhdGVkIENlcnRpZmljYXRlMB0GA1UdDgQW
BBSd9aXzFWprQVf+EXHHef9X0VHfsTCB4wYDVR0jBIHbMIHYgBTqcSx0fk+RoSyW
7FFvvj3zb7WBfKGBtKSBsTCBrjELMAkGA1UEBhMCVVMxCzAJBgNVBAgTAk5ZMRAw
DgYDVQQHEwdCdWZmYWxvMRkwFwYDVQQKExBEaXZpc2lvbiBCeSBaZXJvMRMwEQYD
VQQLEwpQcm9kdWN0aW9uMRUwEwYDVQQDEwxNVFgtUk9VVEVSLTExGDAWBgNVBCkT
D1dheW5lIEUuIFNlZ3VpbjEfMB0GCSqGSIb3DQEJARYQbWFpbEBob3N0LmRvbWFp
boIJAORpCFgLeTQ2MBMGA1UdJQQMMAoGCCsGAQUFBwMCMAsGA1UdDwQEAwIHgDAN
BgkqhkiG9w0BAQUFAAOBgQCCno6YdehmW5Drl2Rrwx+drytAplppSyATUnDrLCRO
x3TIAUrTs34+TsSoAtlBNwaaMFPZFhF+ykHCRFNp6AabRJ2uMZxZZrMDvUS/OCcr
WjJ9pi/N7Ut3WucY/9yPkVR5ctU5FrNxccWW9VT1Oy4p9esikrhRFmh6ATAovLaa
9w==
-----END CERTIFICATE-----
