Certificate:
    Data:
        Version: 3 (0x2)
        Serial Number: 4 (0x4)
    Signature Algorithm: sha1WithRSAEncryption
        Issuer: C=US, ST=NY, L=Buffalo, O=Division By Zero, OU=Production, CN=MTX-ROUTER-1/name=Wayne E. Seguin/emailAddress=mail@host.domain
        Validity
            Not Before: Jan 29 17:49:28 2014 GMT
            Not After : Jan 27 17:49:28 2024 GMT
        Subject: C=US, ST=NY, L=Buffalo, O=Division By Zero, OU=Production, CN=MTX-ROUTER-1/name=Wayne E. Seguin/emailAddress=wayneeseguin@gmail.com
        Subject Public Key Info:
            Public Key Algorithm: rsaEncryption
                Public-Key: (1024 bit)
                Modulus:
                    00:f8:6d:b9:38:9f:47:72:8a:32:63:a1:08:45:e6:
                    0d:47:36:7a:d9:63:aa:13:60:1f:8a:ad:f8:fa:5b:
                    8f:46:fa:4c:ec:e1:5a:2b:4e:90:a5:14:47:fa:a0:
                    d5:61:1a:ea:2e:79:24:1d:68:11:e4:1c:1c:98:46:
                    c5:ed:b4:47:80:89:88:6d:31:ad:9a:1d:4c:07:a0:
                    69:59:9e:53:52:fd:48:56:ae:8a:a1:60:78:2d:d6:
                    72:65:f7:8a:fb:76:33:a7:6b:b0:21:33:d4:24:ab:
                    94:8f:e3:21:7f:07:9e:1c:2c:83:f4:40:3e:53:fa:
                    1e:9c:4d:97:29:dd:87:da:03
                Exponent: 65537 (0x10001)
        X509v3 extensions:
            X509v3 Basic Constraints: 
                CA:FALSE
            Netscape Comment: 
                Easy-RSA Generated Certificate
            X509v3 Subject Key Identifier: 
                2C:0B:01:0B:F4:AE:79:25:06:E1:DD:0C:84:8A:B6:02:C5:B2:07:2C
            X509v3 Authority Key Identifier: 
                keyid:EA:71:2C:74:7E:4F:91:A1:2C:96:EC:51:6F:BE:3D:F3:6F:B5:81:7C
                DirName:/C=US/ST=NY/L=Buffalo/O=Division By Zero/OU=Production/CN=MTX-ROUTER-1/name=Wayne E. Seguin/emailAddress=mail@host.domain
                serial:E4:69:08:58:0B:79:34:36

            X509v3 Extended Key Usage: 
                TLS Web Client Authentication
            X509v3 Key Usage: 
                Digital Signature
    Signature Algorithm: sha1WithRSAEncryption
         73:9b:33:52:86:19:be:76:f4:0c:a4:47:df:c1:1e:61:40:b9:
         da:61:02:4d:c9:bc:44:d7:ff:ea:c6:e5:9b:fb:fd:4d:63:1f:
         7c:64:ad:1b:75:95:03:12:dc:7e:e1:8a:d4:c3:71:5d:cc:05:
         00:b8:e0:25:ff:1f:b6:29:8c:f0:09:cb:f6:ae:1e:26:54:c6:
         cd:92:42:f3:9f:ac:36:29:4f:50:79:84:b0:2b:c0:2d:53:40:
         72:29:e2:36:bd:88:20:c6:2e:56:3b:24:80:8b:2c:c9:28:78:
         61:7c:73:36:06:da:e6:24:0a:50:32:92:04:dd:da:bb:ec:5b:
         f3:84
-----BEGIN CERTIFICATE-----
MIIEQTCCA6qgAwIBAgIBBDANBgkqhkiG9w0BAQUFADCBrjELMAkGA1UEBhMCVVMx
CzAJBgNVBAgTAk5ZMRAwDgYDVQQHEwdCdWZmYWxvMRkwFwYDVQQKExBEaXZpc2lv
biBCeSBaZXJvMRMwEQYDVQQLEwpQcm9kdWN0aW9uMRUwEwYDVQQDEwxNVFgtUk9V
VEVSLTExGDAWBgNVBCkTD1dheW5lIEUuIFNlZ3VpbjEfMB0GCSqGSIb3DQEJARYQ
bWFpbEBob3N0LmRvbWFpbjAeFw0xNDAxMjkxNzQ5MjhaFw0yNDAxMjcxNzQ5Mjha
MIG0MQswCQYDVQQGEwJVUzELMAkGA1UECBMCTlkxEDAOBgNVBAcTB0J1ZmZhbG8x
GTAXBgNVBAoTEERpdmlzaW9uIEJ5IFplcm8xEzARBgNVBAsTClByb2R1Y3Rpb24x
FTATBgNVBAMTDE1UWC1ST1VURVItMTEYMBYGA1UEKRMPV2F5bmUgRS4gU2VndWlu
MSUwIwYJKoZIhvcNAQkBFhZ3YXluZWVzZWd1aW5AZ21haWwuY29tMIGfMA0GCSqG
SIb3DQEBAQUAA4GNADCBiQKBgQD4bbk4n0dyijJjoQhF5g1HNnrZY6oTYB+Krfj6
W49G+kzs4VorTpClFEf6oNVhGuoueSQdaBHkHByYRsXttEeAiYhtMa2aHUwHoGlZ
nlNS/UhWroqhYHgt1nJl94r7djOna7AhM9Qkq5SP4yF/B54cLIP0QD5T+h6cTZcp
3YfaAwIDAQABo4IBZTCCAWEwCQYDVR0TBAIwADAtBglghkgBhvhCAQ0EIBYeRWFz
eS1SU0EgR2VuZXJhdGVkIENlcnRpZmljYXRlMB0GA1UdDgQWBBQsCwEL9K55JQbh
3QyEirYCxbIHLDCB4wYDVR0jBIHbMIHYgBTqcSx0fk+RoSyW7FFvvj3zb7WBfKGB
tKSBsTCBrjELMAkGA1UEBhMCVVMxCzAJBgNVBAgTAk5ZMRAwDgYDVQQHEwdCdWZm
YWxvMRkwFwYDVQQKExBEaXZpc2lvbiBCeSBaZXJvMRMwEQYDVQQLEwpQcm9kdWN0
aW9uMRUwEwYDVQQDEwxNVFgtUk9VVEVSLTExGDAWBgNVBCkTD1dheW5lIEUuIFNl
Z3VpbjEfMB0GCSqGSIb3DQEJARYQbWFpbEBob3N0LmRvbWFpboIJAORpCFgLeTQ2
MBMGA1UdJQQMMAoGCCsGAQUFBwMCMAsGA1UdDwQEAwIHgDANBgkqhkiG9w0BAQUF
AAOBgQBzmzNShhm+dvQMpEffwR5hQLnaYQJNybxE1//qxuWb+/1NYx98ZK0bdZUD
Etx+4YrUw3FdzAUAuOAl/x+2KYzwCcv2rh4mVMbNkkLzn6w2KU9QeYSwK8AtU0By
KeI2vYggxi5WOySAiyzJKHhhfHM2BtrmJApQMpIE3dq77FvzhA==
-----END CERTIFICATE-----
