Certificate:
    Data:
        Version: 3 (0x2)
        Serial Number: 5 (0x5)
    Signature Algorithm: sha1WithRSAEncryption
        Issuer: C=US, ST=NY, L=Buffalo, O=Division By Zero, OU=Production, CN=MTX-ROUTER-1/name=Wayne E. Seguin/emailAddress=mail@host.domain
        Validity
            Not Before: Jan 29 17:50:40 2014 GMT
            Not After : Jan 27 17:50:40 2024 GMT
        Subject: C=US, ST=NY, L=Buffalo, O=Division By Zero, OU=Production, CN=MTX-ROUTER-1/name=Long Nguyen/emailAddress=long.nguyen11288@gmail.com
        Subject Public Key Info:
            Public Key Algorithm: rsaEncryption
                Public-Key: (1024 bit)
                Modulus:
                    00:c5:e1:dc:f3:01:ce:2a:ec:ff:74:7b:57:27:0b:
                    bc:a2:21:8b:33:be:8c:4a:08:7a:bc:be:35:28:c9:
                    ae:85:eb:b4:3f:4e:16:7c:7a:4e:23:b4:f1:f8:60:
                    ab:3e:e3:e4:e0:bc:bb:28:8f:52:87:f0:e1:0e:37:
                    d8:a5:0f:70:cb:f6:76:57:2b:23:da:cc:9b:ef:6e:
                    9d:b6:bf:5b:4a:95:5c:68:40:51:8e:b0:af:fe:7b:
                    4e:78:df:99:14:ec:fb:20:67:0b:fb:ed:e1:9f:80:
                    df:ae:82:d6:52:95:51:10:a1:ff:ba:34:7f:8f:9a:
                    dc:c4:d3:5c:a0:53:8a:99:5f
                Exponent: 65537 (0x10001)
        X509v3 extensions:
            X509v3 Basic Constraints: 
                CA:FALSE
            Netscape Comment: 
                Easy-RSA Generated Certificate
            X509v3 Subject Key Identifier: 
                BD:2E:B4:22:E2:F7:F3:0F:94:B5:5E:30:38:8D:9A:24:11:D8:12:80
            X509v3 Authority Key Identifier: 
                keyid:EA:71:2C:74:7E:4F:91:A1:2C:96:EC:51:6F:BE:3D:F3:6F:B5:81:7C
                DirName:/C=US/ST=NY/L=Buffalo/O=Division By Zero/OU=Production/CN=MTX-ROUTER-1/name=Wayne E. Seguin/emailAddress=mail@host.domain
                serial:E4:69:08:58:0B:79:34:36

            X509v3 Extended Key Usage: 
                TLS Web Client Authentication
            X509v3 Key Usage: 
                Digital Signature
    Signature Algorithm: sha1WithRSAEncryption
         89:80:4b:e0:86:12:f5:b4:bd:7b:b2:eb:05:c0:0a:86:50:0e:
         63:e1:97:09:3c:d9:ed:b4:2a:20:c0:d1:ea:30:7a:4e:04:ed:
         3a:de:13:3e:3f:01:f7:c9:c2:72:ef:76:8c:fa:ef:cb:8e:91:
         da:a7:c7:12:40:af:a7:3d:78:21:4a:3a:d0:f7:63:37:82:4f:
         37:4f:90:85:67:7b:79:94:a9:d1:69:79:28:ee:e1:02:27:22:
         ab:f9:8d:7d:d1:a3:85:17:50:43:16:0f:f4:90:20:3a:19:53:
         e5:e9:b9:4f:c8:19:56:92:f8:75:eb:cb:c2:f2:4d:21:af:12:
         68:88
-----BEGIN CERTIFICATE-----
MIIEQTCCA6qgAwIBAgIBBTANBgkqhkiG9w0BAQUFADCBrjELMAkGA1UEBhMCVVMx
CzAJBgNVBAgTAk5ZMRAwDgYDVQQHEwdCdWZmYWxvMRkwFwYDVQQKExBEaXZpc2lv
biBCeSBaZXJvMRMwEQYDVQQLEwpQcm9kdWN0aW9uMRUwEwYDVQQDEwxNVFgtUk9V
VEVSLTExGDAWBgNVBCkTD1dheW5lIEUuIFNlZ3VpbjEfMB0GCSqGSIb3DQEJARYQ
bWFpbEBob3N0LmRvbWFpbjAeFw0xNDAxMjkxNzUwNDBaFw0yNDAxMjcxNzUwNDBa
MIG0MQswCQYDVQQGEwJVUzELMAkGA1UECBMCTlkxEDAOBgNVBAcTB0J1ZmZhbG8x
GTAXBgNVBAoTEERpdmlzaW9uIEJ5IFplcm8xEzARBgNVBAsTClByb2R1Y3Rpb24x
FTATBgNVBAMTDE1UWC1ST1VURVItMTEUMBIGA1UEKRMLTG9uZyBOZ3V5ZW4xKTAn
BgkqhkiG9w0BCQEWGmxvbmcubmd1eWVuMTEyODhAZ21haWwuY29tMIGfMA0GCSqG
SIb3DQEBAQUAA4GNADCBiQKBgQDF4dzzAc4q7P90e1cnC7yiIYszvoxKCHq8vjUo
ya6F67Q/ThZ8ek4jtPH4YKs+4+TgvLsoj1KH8OEON9ilD3DL9nZXKyPazJvvbp22
v1tKlVxoQFGOsK/+e05435kU7PsgZwv77eGfgN+ugtZSlVEQof+6NH+PmtzE01yg
U4qZXwIDAQABo4IBZTCCAWEwCQYDVR0TBAIwADAtBglghkgBhvhCAQ0EIBYeRWFz
eS1SU0EgR2VuZXJhdGVkIENlcnRpZmljYXRlMB0GA1UdDgQWBBS9LrQi4vfzD5S1
XjA4jZokEdgSgDCB4wYDVR0jBIHbMIHYgBTqcSx0fk+RoSyW7FFvvj3zb7WBfKGB
tKSBsTCBrjELMAkGA1UEBhMCVVMxCzAJBgNVBAgTAk5ZMRAwDgYDVQQHEwdCdWZm
YWxvMRkwFwYDVQQKExBEaXZpc2lvbiBCeSBaZXJvMRMwEQYDVQQLEwpQcm9kdWN0
aW9uMRUwEwYDVQQDEwxNVFgtUk9VVEVSLTExGDAWBgNVBCkTD1dheW5lIEUuIFNl
Z3VpbjEfMB0GCSqGSIb3DQEJARYQbWFpbEBob3N0LmRvbWFpboIJAORpCFgLeTQ2
MBMGA1UdJQQMMAoGCCsGAQUFBwMCMAsGA1UdDwQEAwIHgDANBgkqhkiG9w0BAQUF
AAOBgQCJgEvghhL1tL17susFwAqGUA5j4ZcJPNnttCogwNHqMHpOBO063hM+PwH3
ycJy73aM+u/LjpHap8cSQK+nPXghSjrQ92M3gk83T5CFZ3t5lKnRaXko7uECJyKr
+Y190aOFF1BDFg/0kCA6GVPl6blPyBlWkvh168vC8k0hrxJoiA==
-----END CERTIFICATE-----
