Certificate:
    Data:
        Version: 3 (0x2)
        Serial Number: 7 (0x7)
    Signature Algorithm: sha1WithRSAEncryption
        Issuer: C=US, ST=NY, L=Buffalo, O=Division By Zero, OU=Production, CN=MTX-ROUTER-1/name=Wayne E. Seguin/emailAddress=mail@host.domain
        Validity
            Not Before: Feb  3 16:58:44 2014 GMT
            Not After : Feb  1 16:58:44 2024 GMT
        Subject: C=US, ST=CA, L=Palo Alto, O=Stark And Wayne, OU=Production, CN=MTX-ROUTER-1/name=Dr. Nic Williams/emailAddress=mail@host.domain
        Subject Public Key Info:
            Public Key Algorithm: rsaEncryption
                Public-Key: (1024 bit)
                Modulus:
                    00:c9:50:29:ad:0e:a9:47:0b:f2:da:5a:fe:a0:58:
                    ec:ef:e9:65:56:af:40:bd:62:f8:b1:80:53:20:7a:
                    94:48:f2:40:99:82:77:1f:2f:df:66:77:be:7b:18:
                    a3:a3:6d:f5:81:a1:98:4f:ed:42:98:27:88:fb:4a:
                    46:c9:4b:c5:40:73:29:d1:33:7a:9c:69:e9:5f:5f:
                    05:69:32:9a:b2:b3:7d:48:f0:00:07:7b:1f:91:50:
                    b6:5c:8a:7c:c7:5f:6e:1b:14:e9:90:58:87:99:21:
                    b5:3f:d1:21:2b:32:ea:29:3c:8e:dd:00:98:90:f2:
                    e4:e5:ca:a6:06:0f:1e:51:73
                Exponent: 65537 (0x10001)
        X509v3 extensions:
            X509v3 Basic Constraints: 
                CA:FALSE
            Netscape Comment: 
                Easy-RSA Generated Certificate
            X509v3 Subject Key Identifier: 
                B3:DD:06:AE:79:13:69:AC:F2:8A:F1:5C:E6:29:44:B4:81:4D:08:A4
            X509v3 Authority Key Identifier: 
                keyid:EA:71:2C:74:7E:4F:91:A1:2C:96:EC:51:6F:BE:3D:F3:6F:B5:81:7C
                DirName:/C=US/ST=NY/L=Buffalo/O=Division By Zero/OU=Production/CN=MTX-ROUTER-1/name=Wayne E. Seguin/emailAddress=mail@host.domain
                serial:E4:69:08:58:0B:79:34:36

            X509v3 Extended Key Usage: 
                TLS Web Client Authentication
            X509v3 Key Usage: 
                Digital Signature
    Signature Algorithm: sha1WithRSAEncryption
         29:dd:cb:ef:85:92:50:fb:3f:d4:a1:f0:d7:bf:8a:06:0b:2f:
         b8:84:c4:63:98:09:3b:fa:83:73:79:9d:29:51:90:4d:4d:b0:
         83:82:16:e7:ca:60:23:68:53:ab:0c:15:b6:4e:b9:cf:b3:a3:
         b3:59:50:2d:2c:fa:e5:ab:90:ff:b8:ae:76:7b:04:f0:3c:3d:
         01:31:94:63:65:6d:e3:a0:f7:73:c6:b2:37:f4:e8:6c:0c:b1:
         be:4b:36:d5:79:3f:cc:67:34:7a:0f:4d:58:dd:ed:85:15:81:
         3d:cd:44:cb:1e:53:bd:27:c2:df:24:a8:63:0f:58:55:ec:fc:
         8f:2b
-----BEGIN CERTIFICATE-----
MIIEPTCCA6agAwIBAgIBBzANBgkqhkiG9w0BAQUFADCBrjELMAkGA1UEBhMCVVMx
CzAJBgNVBAgTAk5ZMRAwDgYDVQQHEwdCdWZmYWxvMRkwFwYDVQQKExBEaXZpc2lv
biBCeSBaZXJvMRMwEQYDVQQLEwpQcm9kdWN0aW9uMRUwEwYDVQQDEwxNVFgtUk9V
VEVSLTExGDAWBgNVBCkTD1dheW5lIEUuIFNlZ3VpbjEfMB0GCSqGSIb3DQEJARYQ
bWFpbEBob3N0LmRvbWFpbjAeFw0xNDAyMDMxNjU4NDRaFw0yNDAyMDExNjU4NDRa
MIGwMQswCQYDVQQGEwJVUzELMAkGA1UECBMCQ0ExEjAQBgNVBAcTCVBhbG8gQWx0
bzEYMBYGA1UEChMPU3RhcmsgQW5kIFdheW5lMRMwEQYDVQQLEwpQcm9kdWN0aW9u
MRUwEwYDVQQDEwxNVFgtUk9VVEVSLTExGTAXBgNVBCkTEERyLiBOaWMgV2lsbGlh
bXMxHzAdBgkqhkiG9w0BCQEWEG1haWxAaG9zdC5kb21haW4wgZ8wDQYJKoZIhvcN
AQEBBQADgY0AMIGJAoGBAMlQKa0OqUcL8tpa/qBY7O/pZVavQL1i+LGAUyB6lEjy
QJmCdx8v32Z3vnsYo6Nt9YGhmE/tQpgniPtKRslLxUBzKdEzepxp6V9fBWkymrKz
fUjwAAd7H5FQtlyKfMdfbhsU6ZBYh5khtT/RISsy6ik8jt0AmJDy5OXKpgYPHlFz
AgMBAAGjggFlMIIBYTAJBgNVHRMEAjAAMC0GCWCGSAGG+EIBDQQgFh5FYXN5LVJT
QSBHZW5lcmF0ZWQgQ2VydGlmaWNhdGUwHQYDVR0OBBYEFLPdBq55E2ms8orxXOYp
RLSBTQikMIHjBgNVHSMEgdswgdiAFOpxLHR+T5GhLJbsUW++PfNvtYF8oYG0pIGx
MIGuMQswCQYDVQQGEwJVUzELMAkGA1UECBMCTlkxEDAOBgNVBAcTB0J1ZmZhbG8x
GTAXBgNVBAoTEERpdmlzaW9uIEJ5IFplcm8xEzARBgNVBAsTClByb2R1Y3Rpb24x
FTATBgNVBAMTDE1UWC1ST1VURVItMTEYMBYGA1UEKRMPV2F5bmUgRS4gU2VndWlu
MR8wHQYJKoZIhvcNAQkBFhBtYWlsQGhvc3QuZG9tYWluggkA5GkIWAt5NDYwEwYD
VR0lBAwwCgYIKwYBBQUHAwIwCwYDVR0PBAQDAgeAMA0GCSqGSIb3DQEBBQUAA4GB
ACndy++FklD7P9Sh8Ne/igYLL7iExGOYCTv6g3N5nSlRkE1NsIOCFufKYCNoU6sM
FbZOuc+zo7NZUC0s+uWrkP+4rnZ7BPA8PQExlGNlbeOg93PGsjf06GwMsb5LNtV5
P8xnNHoPTVjd7YUVgT3NRMseU70nwt8kqGMPWFXs/I8r
-----END CERTIFICATE-----
