Certificate:
    Data:
        Version: 3 (0x2)
        Serial Number: 10 (0xa)
    Signature Algorithm: sha1WithRSAEncryption
        Issuer: C=US, ST=NY, L=Buffalo, O=Division By Zero, OU=Production, CN=MTX-ROUTER-1/name=Wayne E. Seguin/emailAddress=mail@host.domain
        Validity
            Not Before: Apr 25 14:08:36 2014 GMT
            Not After : Apr 22 14:08:36 2024 GMT
        Subject: C=US, ST=NY, L=Buffalo, O=Division By Zero, OU=Production, CN=MTX-ROUTER-1/name=Dave Parfitt/emailAddress=dparfitt@starkandwayne.com
        Subject Public Key Info:
            Public Key Algorithm: rsaEncryption
                Public-Key: (1024 bit)
                Modulus:
                    00:df:ce:b6:4d:cf:e9:59:12:31:ef:09:93:ec:55:
                    b1:8f:94:80:c4:8d:76:7b:c8:5a:56:ea:1a:89:b5:
                    08:6d:74:77:a3:54:0e:93:c3:3c:af:6d:3a:fa:55:
                    16:91:92:95:a4:d9:98:fa:55:07:ed:0a:d6:91:20:
                    42:e9:df:cc:11:00:c6:30:5a:bc:8b:1f:3c:84:22:
                    2b:c8:af:b5:b7:90:3c:ed:d8:30:67:7f:c0:0e:67:
                    d9:59:35:e6:1b:af:fc:37:cb:08:22:62:95:bc:da:
                    bf:e4:e3:5a:c0:c3:d1:0b:da:fb:80:91:1e:b1:cb:
                    fb:dc:89:fa:3e:d2:94:a1:c5
                Exponent: 65537 (0x10001)
        X509v3 extensions:
            X509v3 Basic Constraints: 
                CA:FALSE
            Netscape Comment: 
                Easy-RSA Generated Certificate
            X509v3 Subject Key Identifier: 
                15:5B:CE:91:D3:DE:0C:9E:BF:11:1C:E8:5D:58:8B:0C:88:6A:0B:6B
            X509v3 Authority Key Identifier: 
                keyid:EA:71:2C:74:7E:4F:91:A1:2C:96:EC:51:6F:BE:3D:F3:6F:B5:81:7C
                DirName:/C=US/ST=NY/L=Buffalo/O=Division By Zero/OU=Production/CN=MTX-ROUTER-1/name=Wayne E. Seguin/emailAddress=mail@host.domain
                serial:E4:69:08:58:0B:79:34:36

            X509v3 Extended Key Usage: 
                TLS Web Client Authentication
            X509v3 Key Usage: 
                Digital Signature
    Signature Algorithm: sha1WithRSAEncryption
         03:0d:8c:b8:26:4b:82:ee:3c:4f:7d:53:60:42:f6:40:df:90:
         a5:a0:50:aa:e8:43:b9:f7:f7:c9:aa:41:77:af:22:45:3f:dc:
         58:49:e9:3f:9c:b6:9e:b0:0b:89:fc:25:74:e3:71:ea:6c:37:
         c6:32:d3:e4:1f:f7:bc:b6:c4:4b:4a:45:5d:4b:52:4b:4c:aa:
         ea:a5:cc:72:73:20:74:1a:31:ec:87:ce:f2:30:d0:ba:8b:97:
         f8:fe:cd:ef:94:cc:54:48:a9:42:9f:3e:3d:2c:dc:bd:39:46:
         9c:16:1c:db:3f:94:74:16:09:1e:0e:10:29:a4:ff:79:04:45:
         90:73
-----BEGIN CERTIFICATE-----
MIIEQjCCA6ugAwIBAgIBCjANBgkqhkiG9w0BAQUFADCBrjELMAkGA1UEBhMCVVMx
CzAJBgNVBAgTAk5ZMRAwDgYDVQQHEwdCdWZmYWxvMRkwFwYDVQQKExBEaXZpc2lv
biBCeSBaZXJvMRMwEQYDVQQLEwpQcm9kdWN0aW9uMRUwEwYDVQQDEwxNVFgtUk9V
VEVSLTExGDAWBgNVBCkTD1dheW5lIEUuIFNlZ3VpbjEfMB0GCSqGSIb3DQEJARYQ
bWFpbEBob3N0LmRvbWFpbjAeFw0xNDA0MjUxNDA4MzZaFw0yNDA0MjIxNDA4MzZa
MIG1MQswCQYDVQQGEwJVUzELMAkGA1UECBMCTlkxEDAOBgNVBAcTB0J1ZmZhbG8x
GTAXBgNVBAoTEERpdmlzaW9uIEJ5IFplcm8xEzARBgNVBAsTClByb2R1Y3Rpb24x
FTATBgNVBAMTDE1UWC1ST1VURVItMTEVMBMGA1UEKRMMRGF2ZSBQYXJmaXR0MSkw
JwYJKoZIhvcNAQkBFhpkcGFyZml0dEBzdGFya2FuZHdheW5lLmNvbTCBnzANBgkq
hkiG9w0BAQEFAAOBjQAwgYkCgYEA3862Tc/pWRIx7wmT7FWxj5SAxI12e8haVuoa
ibUIbXR3o1QOk8M8r206+lUWkZKVpNmY+lUH7QrWkSBC6d/MEQDGMFq8ix88hCIr
yK+1t5A87dgwZ3/ADmfZWTXmG6/8N8sIImKVvNq/5ONawMPRC9r7gJEescv73In6
PtKUocUCAwEAAaOCAWUwggFhMAkGA1UdEwQCMAAwLQYJYIZIAYb4QgENBCAWHkVh
c3ktUlNBIEdlbmVyYXRlZCBDZXJ0aWZpY2F0ZTAdBgNVHQ4EFgQUFVvOkdPeDJ6/
ERzoXViLDIhqC2swgeMGA1UdIwSB2zCB2IAU6nEsdH5PkaEsluxRb74982+1gXyh
gbSkgbEwga4xCzAJBgNVBAYTAlVTMQswCQYDVQQIEwJOWTEQMA4GA1UEBxMHQnVm
ZmFsbzEZMBcGA1UEChMQRGl2aXNpb24gQnkgWmVybzETMBEGA1UECxMKUHJvZHVj
dGlvbjEVMBMGA1UEAxMMTVRYLVJPVVRFUi0xMRgwFgYDVQQpEw9XYXluZSBFLiBT
ZWd1aW4xHzAdBgkqhkiG9w0BCQEWEG1haWxAaG9zdC5kb21haW6CCQDkaQhYC3k0
NjATBgNVHSUEDDAKBggrBgEFBQcDAjALBgNVHQ8EBAMCB4AwDQYJKoZIhvcNAQEF
BQADgYEAAw2MuCZLgu48T31TYEL2QN+QpaBQquhDuff3yapBd68iRT/cWEnpP5y2
nrALifwldONx6mw3xjLT5B/3vLbES0pFXUtSS0yq6qXMcnMgdBox7IfO8jDQuouX
+P7N75TMVEipQp8+PSzcvTlGnBYc2z+UdBYJHg4QKaT/eQRFkHM=
-----END CERTIFICATE-----
