Certificate:
    Data:
        Version: 3 (0x2)
        Serial Number: 11 (0xb)
    Signature Algorithm: sha1WithRSAEncryption
        Issuer: C=US, ST=NY, L=Buffalo, O=Division By Zero, OU=Production, CN=MTX-ROUTER-1/name=Wayne E. Seguin/emailAddress=mail@host.domain
        Validity
            Not Before: Dec 10 19:05:17 2014 GMT
            Not After : Dec  7 19:05:17 2024 GMT
        Subject: C=US, ST=NY, L=Buffalo, O=Division By Zero, OU=Production, CN=MTX-ROUTER-1/name=David Bishop/emailAddress=dbishop@starkandwayne.com
        Subject Public Key Info:
            Public Key Algorithm: rsaEncryption
                Public-Key: (1024 bit)
                Modulus:
                    00:cc:82:57:bb:34:02:7b:4d:64:9f:7a:f4:38:90:
                    f2:ff:c7:5c:27:23:95:b8:10:a1:d6:7b:91:71:83:
                    80:05:1c:86:97:13:c5:13:bc:dc:6a:2d:a6:be:cb:
                    f5:40:85:e8:fd:1d:78:27:14:01:d4:35:9e:45:83:
                    d3:c1:5d:a9:6c:9f:dc:57:6a:61:e4:75:3b:48:94:
                    3b:25:c2:bd:d8:92:a6:7f:bb:57:d9:fb:99:99:c5:
                    9b:eb:a3:81:d2:6b:0b:f7:a8:ba:45:3d:43:71:e1:
                    21:44:e7:8d:05:28:8b:eb:d7:9b:ae:c1:b0:b5:93:
                    a8:a1:38:ac:f1:63:0f:f1:ab
                Exponent: 65537 (0x10001)
        X509v3 extensions:
            X509v3 Basic Constraints: 
                CA:FALSE
            Netscape Comment: 
                Easy-RSA Generated Certificate
            X509v3 Subject Key Identifier: 
                2D:ED:F5:EB:B3:90:2B:19:8E:6F:8A:1C:9E:94:48:99:65:9A:68:5B
            X509v3 Authority Key Identifier: 
                keyid:EA:71:2C:74:7E:4F:91:A1:2C:96:EC:51:6F:BE:3D:F3:6F:B5:81:7C
                DirName:/C=US/ST=NY/L=Buffalo/O=Division By Zero/OU=Production/CN=MTX-ROUTER-1/name=Wayne E. Seguin/emailAddress=mail@host.domain
                serial:E4:69:08:58:0B:79:34:36

            X509v3 Extended Key Usage: 
                TLS Web Client Authentication
            X509v3 Key Usage: 
                Digital Signature
    Signature Algorithm: sha1WithRSAEncryption
         4f:db:0e:1d:a0:75:4d:4e:54:7b:dc:27:64:df:8b:11:19:ae:
         83:23:b1:c8:76:e7:47:80:e3:01:a5:e0:57:7f:f1:5b:14:07:
         ce:bf:61:29:d5:74:c9:8a:5e:03:97:11:85:6d:a8:37:60:7d:
         60:ae:72:81:54:b5:e8:a1:be:3b:92:a4:de:61:83:2f:ce:9f:
         88:10:5e:12:3c:da:44:26:fa:6e:c8:99:b1:2c:ef:fb:fc:d3:
         39:c2:f9:f8:14:99:62:d5:72:66:31:31:6a:30:f4:23:81:7d:
         54:6a:5d:4d:53:bb:17:34:32:04:79:0c:1d:e4:38:d0:64:8e:
         6e:9f
-----BEGIN CERTIFICATE-----
MIIEQTCCA6qgAwIBAgIBCzANBgkqhkiG9w0BAQUFADCBrjELMAkGA1UEBhMCVVMx
CzAJBgNVBAgTAk5ZMRAwDgYDVQQHEwdCdWZmYWxvMRkwFwYDVQQKExBEaXZpc2lv
biBCeSBaZXJvMRMwEQYDVQQLEwpQcm9kdWN0aW9uMRUwEwYDVQQDEwxNVFgtUk9V
VEVSLTExGDAWBgNVBCkTD1dheW5lIEUuIFNlZ3VpbjEfMB0GCSqGSIb3DQEJARYQ
bWFpbEBob3N0LmRvbWFpbjAeFw0xNDEyMTAxOTA1MTdaFw0yNDEyMDcxOTA1MTda
MIG0MQswCQYDVQQGEwJVUzELMAkGA1UECBMCTlkxEDAOBgNVBAcTB0J1ZmZhbG8x
GTAXBgNVBAoTEERpdmlzaW9uIEJ5IFplcm8xEzARBgNVBAsTClByb2R1Y3Rpb24x
FTATBgNVBAMTDE1UWC1ST1VURVItMTEVMBMGA1UEKRMMRGF2aWQgQmlzaG9wMSgw
JgYJKoZIhvcNAQkBFhlkYmlzaG9wQHN0YXJrYW5kd2F5bmUuY29tMIGfMA0GCSqG
SIb3DQEBAQUAA4GNADCBiQKBgQDMgle7NAJ7TWSfevQ4kPL/x1wnI5W4EKHWe5Fx
g4AFHIaXE8UTvNxqLaa+y/VAhej9HXgnFAHUNZ5Fg9PBXalsn9xXamHkdTtIlDsl
wr3YkqZ/u1fZ+5mZxZvro4HSawv3qLpFPUNx4SFE540FKIvr15uuwbC1k6ihOKzx
Yw/xqwIDAQABo4IBZTCCAWEwCQYDVR0TBAIwADAtBglghkgBhvhCAQ0EIBYeRWFz
eS1SU0EgR2VuZXJhdGVkIENlcnRpZmljYXRlMB0GA1UdDgQWBBQt7fXrs5ArGY5v
ihyelEiZZZpoWzCB4wYDVR0jBIHbMIHYgBTqcSx0fk+RoSyW7FFvvj3zb7WBfKGB
tKSBsTCBrjELMAkGA1UEBhMCVVMxCzAJBgNVBAgTAk5ZMRAwDgYDVQQHEwdCdWZm
YWxvMRkwFwYDVQQKExBEaXZpc2lvbiBCeSBaZXJvMRMwEQYDVQQLEwpQcm9kdWN0
aW9uMRUwEwYDVQQDEwxNVFgtUk9VVEVSLTExGDAWBgNVBCkTD1dheW5lIEUuIFNl
Z3VpbjEfMB0GCSqGSIb3DQEJARYQbWFpbEBob3N0LmRvbWFpboIJAORpCFgLeTQ2
MBMGA1UdJQQMMAoGCCsGAQUFBwMCMAsGA1UdDwQEAwIHgDANBgkqhkiG9w0BAQUF
AAOBgQBP2w4doHVNTlR73Cdk34sRGa6DI7HIdudHgOMBpeBXf/FbFAfOv2Ep1XTJ
il4DlxGFbag3YH1grnKBVLXoob47kqTeYYMvzp+IEF4SPNpEJvpuyJmxLO/7/NM5
wvn4FJli1XJmMTFqMPQjgX1Ual1NU7sXNDIEeQwd5DjQZI5unw==
-----END CERTIFICATE-----
